; Function Attrs: nounwind uwtable
define internal fastcc ptr @_init_l_Lean_ImportM_runCoreM___rarg___closed__2() unnamed_addr #1 {
  %1 = load ptr, ptr @l_Lean_Core_getMaxHeartbeats___closed__1, align 8, !tbaa !9
  %2 = tail call ptr @l_Lean_Option_get___at_Lean_profiler_threshold_getSecs___spec__1(ptr noundef nonnull inttoptr (i64 1 to ptr), ptr noundef %1) #7
  %3 = ptrtoint ptr %2 to i64
  %4 = and i64 %3, 1
  %.not.i = icmp eq i64 %4, 0
  br i1 %.not.i, label %17, label %5, !prof !14

5:                                                ; preds = %0
  %6 = lshr i64 %3, 1
  %7 = icmp ult ptr %2, inttoptr (i64 2 to ptr)
  br i1 %7, label %l_Lean_Core_getMaxHeartbeats.exit, label %8

8:                                                ; preds = %5
  %mul.i.i = tail call { i64, i1 } @llvm.umul.with.overflow.i64(i64 %6, i64 1000)
  %mul.val.i.i = extractvalue { i64, i1 } %mul.i.i, 0
  %9 = icmp sgt i64 %mul.val.i.i, -1
  br i1 %9, label %10, label %15

10:                                               ; preds = %8
  %mul.ov.i.i = extractvalue { i64, i1 } %mul.i.i, 1
  br i1 %mul.ov.i.i, label %15, label %11

11:                                               ; preds = %10
  %12 = shl nuw i64 %mul.val.i.i, 1
  %13 = or disjoint i64 %12, 1
  %14 = inttoptr i64 %13 to ptr
  br label %l_Lean_Core_getMaxHeartbeats.exit

15:                                               ; preds = %10, %8
  %16 = tail call ptr @lean_nat_overflow_mul(i64 noundef %6, i64 noundef 1000) #7
  br label %l_Lean_Core_getMaxHeartbeats.exit

17:                                               ; preds = %0
  %18 = tail call ptr @lean_nat_big_mul(ptr noundef %2, ptr noundef nonnull inttoptr (i64 2001 to ptr)) #7
  %19 = load i32, ptr %2, align 4, !tbaa !4
  %20 = icmp sgt i32 %19, 1
  br i1 %20, label %21, label %23, !prof !11

21:                                               ; preds = %17
  %22 = add nsw i32 %19, -1
  store i32 %22, ptr %2, align 4, !tbaa !4
  br label %l_Lean_Core_getMaxHeartbeats.exit

23:                                               ; preds = %17
  %.not.i.i = icmp eq i32 %19, 0
  br i1 %.not.i.i, label %l_Lean_Core_getMaxHeartbeats.exit, label %24

24:                                               ; preds = %23
  tail call void @lean_dec_ref_cold(ptr noundef nonnull %2) #7
  br label %l_Lean_Core_getMaxHeartbeats.exit

l_Lean_Core_getMaxHeartbeats.exit:                ; preds = %5, %11, %15, %21, %23, %24
  %.2.i7.i = phi ptr [ %18, %21 ], [ %18, %23 ], [ %18, %24 ], [ %16, %15 ], [ %14, %11 ], [ %2, %5 ]
  ret ptr %.2.i7.i
}